; Function Attrs: mustprogress nofree norecurse nosync nounwind willreturn memory(argmem: write) uwtable
define void @stbtt_PackSetOversampling(ptr noundef writeonly captures(none) %0, i32 noundef %1, i32 noundef %2) local_unnamed_addr #12 {
  %4 = icmp ult i32 %1, 9
  br i1 %4, label %5, label %7

5:                                                ; preds = %3
  %6 = getelementptr inbounds nuw i8, ptr %0, i64 36
  store i32 %1, ptr %6, align 4, !tbaa !186
  br label %7

7:                                                ; preds = %5, %3
  %8 = icmp ult i32 %2, 9
  br i1 %8, label %9, label %11

9:                                                ; preds = %7
  %10 = getelementptr inbounds nuw i8, ptr %0, i64 40
  store i32 %2, ptr %10, align 8, !tbaa !187
  br label %11

11:                                               ; preds = %9, %7
  ret void
}